	.file	"hello.bc"
	.section	.text.startup,"ax",@progbits
	.align	16, 0x90
	.type	__cxx_global_var_init,@function
__cxx_global_var_init:                  # @__cxx_global_var_init
	.cfi_startproc
# BB#0:                                 # %entry
	pushq	%rax
.Ltmp1:
	.cfi_def_cfa_offset 16
	movl	$_ZStL8__ioinit, %edi
	callq	_ZNSt8ios_base4InitC1Ev
	movl	$_ZNSt8ios_base4InitD1Ev, %edi
	movl	$_ZStL8__ioinit, %esi
	movl	$__dso_handle, %edx
	callq	__cxa_atexit
	popq	%rax
	ret
.Ltmp2:
	.size	__cxx_global_var_init, .Ltmp2-__cxx_global_var_init
	.cfi_endproc

	.text
	.globl	main
	.align	16, 0x90
	.type	main,@function
main:                                   # @main
	.cfi_startproc
# BB#0:                                 # %entry
	pushq	%rbp
.Ltmp5:
	.cfi_def_cfa_offset 16
.Ltmp6:
	.cfi_offset %rbp, -16
	movq	%rsp, %rbp
.Ltmp7:
	.cfi_def_cfa_register %rbp
	subq	$16, %rsp
	movl	$0, -4(%rbp)
	movl	$_ZSt4cout, %edi
	movl	$.L.str, %esi
	callq	_ZStlsISt11char_traitsIcEERSt13basic_ostreamIcT_ES5_PKc
	xorl	%eax, %eax
	addq	$16, %rsp
	popq	%rbp
	ret
.Ltmp8:
	.size	main, .Ltmp8-main
	.cfi_endproc

	.section	.text.startup,"ax",@progbits
	.align	16, 0x90
	.type	_GLOBAL__I_a,@function
_GLOBAL__I_a:                           # @_GLOBAL__I_a
	.cfi_startproc
# BB#0:                                 # %entry
	pushq	%rbp
.Ltmp11:
	.cfi_def_cfa_offset 16
.Ltmp12:
	.cfi_offset %rbp, -16
	movq	%rsp, %rbp
.Ltmp13:
	.cfi_def_cfa_register %rbp
	callq	__cxx_global_var_init
	popq	%rbp
	ret
.Ltmp14:
	.size	_GLOBAL__I_a, .Ltmp14-_GLOBAL__I_a
	.cfi_endproc

	.type	_ZStL8__ioinit,@object  # @_ZStL8__ioinit
	.local	_ZStL8__ioinit
	.comm	_ZStL8__ioinit,1,1
	.type	.L.str,@object          # @.str
	.section	.rodata.str1.1,"aMS",@progbits,1
.L.str:
	.asciz	 "hello world!\n"
	.size	.L.str, 14

	.section	.ctors,"aw",@progbits
	.align	8
	.quad	_GLOBAL__I_a

	.section	".note.GNU-stack","",@progbits
